target datalayout = "e-m:e-p270:32:32-p271:32:32-p272:64:64-i64:64-i128:128-f80:128-n8:16:32:64-S128"
target triple = "x86_64-pc-linux-gnu"

%struct.persist_conn_t = type { ptr, i32, i32, i8, ptr, ptr, ptr, i64, i16, i32, i16, i8, i32, i32, ptr, i16, ptr, i64, i32, ptr, %struct.slurm_trigger_callbacks_t, i16 }
%struct.slurm_trigger_callbacks_t = type { ptr, ptr, ptr, ptr, ptr }

@slurmdbd_conn = dso_local global ptr null, align 8

; Function Attrs: nounwind uwtable
define dso_local zeroext i1 @slurmdbd_conn_active() #0 {
  %1 = alloca i1, align 1
  %2 = load ptr, ptr @slurmdbd_conn, align 8
  %3 = icmp ne ptr %2, null
  br i1 %3, label %4, label %9

4:                                                ; preds = %0
  %5 = load ptr, ptr @slurmdbd_conn, align 8
  %6 = getelementptr inbounds nuw %struct.persist_conn_t, ptr %5, i32 0, i32 9
  %7 = load i32, ptr %6, align 4
  %8 = icmp slt i32 %7, 0
  br i1 %8, label %9, label %10

9:                                                ; preds = %4, %0
  store i1 false, ptr %1, align 1
  br label %11

10:                                               ; preds = %4
  store i1 true, ptr %1, align 1
  br label %11

11:                                               ; preds = %10, %9
  %12 = load i1, ptr %1, align 1
  ret i1 %12
}