; Function Attrs: mustprogress nofree norecurse nosync nounwind willreturn memory(read, inaccessiblemem: none) uwtable
define dso_local zeroext i1 @slurmdbd_conn_active() local_unnamed_addr #6 {
  %1 = load ptr, ptr @slurmdbd_conn, align 8
  %.not = icmp eq ptr %1, null
  br i1 %.not, label %6, label %2

2:                                                ; preds = %0
  %3 = getelementptr inbounds nuw i8, ptr %1, i64 60
  %4 = load i32, ptr %3, align 4
  %5 = icmp sgt i32 %4, -1
  br label %6

6:                                                ; preds = %2, %0
  %.0 = phi i1 [ false, %0 ], [ %5, %2 ]
  ret i1 %.0
}